target datalayout = "e-m:e-p270:32:32-p271:32:32-p272:64:64-i64:64-i128:128-f80:128-n8:16:32:64-S128"
target triple = "x86_64-pc-linux-gnu"

; Function Attrs: null_pointer_is_valid sspstrong uwtable
define internal zeroext i1 @dissect_sccp_ranap_heur(ptr noundef %0, ptr noundef %1, ptr noundef %2, ptr noundef %3) #0 {
  %5 = alloca i1, align 1
  %6 = alloca ptr, align 8
  %7 = alloca ptr, align 8
  %8 = alloca ptr, align 8
  %9 = alloca ptr, align 8
  %10 = alloca i8, align 1
  %11 = alloca i16, align 2
  %12 = alloca i32, align 4
  %13 = alloca i32, align 4
  %14 = alloca i32, align 4
  store ptr %0, ptr %6, align 8
  store ptr %1, ptr %7, align 8
  store ptr %2, ptr %8, align 8
  store ptr %3, ptr %9, align 8
  call void @llvm.lifetime.start.p0(i64 1, ptr %10) #5
  call void @llvm.lifetime.start.p0(i64 2, ptr %11) #5
  call void @llvm.lifetime.start.p0(i64 4, ptr %12) #5
  call void @llvm.lifetime.start.p0(i64 4, ptr %13) #5
  %15 = load ptr, ptr %6, align 8
  %16 = call i32 @tvb_captured_length(ptr noundef %15)
  %17 = icmp ult i32 %16, 7
  br i1 %17, label %18, label %19

18:                                               ; preds = %4
  store i1 false, ptr %5, align 1
  store i32 1, ptr %14, align 4
  br label %98

19:                                               ; preds = %4
  %20 = load ptr, ptr %6, align 8
  %21 = call zeroext i8 @tvb_get_uint8(ptr noundef %20, i32 noundef 0)
  store i8 %21, ptr %10, align 1
  %22 = load i8, ptr %10, align 1
  %23 = zext i8 %22 to i32
  %24 = and i32 %23, 31
  %25 = icmp ne i32 %24, 0
  br i1 %25, label %26, label %27

26:                                               ; preds = %19
  store i1 false, ptr %5, align 1
  store i32 1, ptr %14, align 4
  br label %98

27:                                               ; preds = %19
  %28 = load ptr, ptr %6, align 8
  %29 = call zeroext i8 @tvb_get_uint8(ptr noundef %28, i32 noundef 2)
  store i8 %29, ptr %10, align 1
  %30 = load i8, ptr %10, align 1
  %31 = zext i8 %30 to i32
  %32 = icmp eq i32 %31, 192
  br i1 %32, label %38, label %33

33:                                               ; preds = %27
  %34 = load i8, ptr %10, align 1
  %35 = zext i8 %34 to i32
  %36 = and i32 %35, 63
  %37 = icmp ne i32 %36, 0
  br i1 %37, label %38, label %39

38:                                               ; preds = %33, %27
  store i1 false, ptr %5, align 1
  store i32 1, ptr %14, align 4
  br label %98

39:                                               ; preds = %33
  store i32 3, ptr %13, align 4
  %40 = load ptr, ptr %6, align 8
  %41 = load i32, ptr %13, align 4
  %42 = call zeroext i8 @tvb_get_uint8(ptr noundef %40, i32 noundef %41)
  %43 = zext i8 %42 to i32
  store i32 %43, ptr %12, align 4
  %44 = load i32, ptr %13, align 4
  %45 = add i32 %44, 1
  store i32 %45, ptr %13, align 4
  %46 = load i32, ptr %12, align 4
  %47 = and i32 %46, 128
  %48 = icmp eq i32 %47, 128
  br i1 %48, label %49, label %68

49:                                               ; preds = %39
  %50 = load i32, ptr %12, align 4
  %51 = and i32 %50, 192
  %52 = icmp eq i32 %51, 128
  br i1 %52, label %53, label %66

53:                                               ; preds = %49
  %54 = load i32, ptr %12, align 4
  %55 = and i32 %54, 63
  store i32 %55, ptr %12, align 4
  %56 = load i32, ptr %12, align 4
  %57 = shl i32 %56, 8
  store i32 %57, ptr %12, align 4
  %58 = load ptr, ptr %6, align 8
  %59 = load i32, ptr %13, align 4
  %60 = call zeroext i8 @tvb_get_uint8(ptr noundef %58, i32 noundef %59)
  %61 = zext i8 %60 to i32
  %62 = load i32, ptr %12, align 4
  %63 = add i32 %62, %61
  store i32 %63, ptr %12, align 4
  %64 = load i32, ptr %13, align 4
  %65 = add i32 %64, 1
  store i32 %65, ptr %13, align 4
  br label %67

66:                                               ; preds = %49
  store i32 0, ptr %12, align 4
  br label %67

67:                                               ; preds = %66, %53
  br label %68

68:                                               ; preds = %67, %39
  %69 = load i32, ptr %12, align 4
  %70 = load ptr, ptr %6, align 8
  %71 = call i32 @tvb_reported_length(ptr noundef %70)
  %72 = load i32, ptr %13, align 4
  %73 = sub i32 %71, %72
  %74 = icmp ne i32 %69, %73
  br i1 %74, label %75, label %76

75:                                               ; preds = %68
  store i1 false, ptr %5, align 1
  store i32 1, ptr %14, align 4
  br label %98

76:                                               ; preds = %68
  %77 = load ptr, ptr %6, align 8
  %78 = call zeroext i8 @tvb_get_uint8(ptr noundef %77, i32 noundef 1)
  store i8 %78, ptr %10, align 1
  %79 = load i8, ptr %10, align 1
  %80 = zext i8 %79 to i32
  %81 = icmp sgt i32 %80, 49
  br i1 %81, label %82, label %83

82:                                               ; preds = %76
  store i1 false, ptr %5, align 1
  store i32 1, ptr %14, align 4
  br label %98

83:                                               ; preds = %76
  %84 = load ptr, ptr %6, align 8
  %85 = load i32, ptr %13, align 4
  %86 = add i32 %85, 1
  %87 = call zeroext i16 @tvb_get_ntohs(ptr noundef %84, i32 noundef %86)
  store i16 %87, ptr %11, align 2
  %88 = load i16, ptr %11, align 2
  %89 = zext i16 %88 to i32
  %90 = icmp sgt i32 %89, 511
  br i1 %90, label %91, label %92

91:                                               ; preds = %83
  store i1 false, ptr %5, align 1
  store i32 1, ptr %14, align 4
  br label %98

92:                                               ; preds = %83
  %93 = load ptr, ptr %6, align 8
  %94 = load ptr, ptr %7, align 8
  %95 = load ptr, ptr %8, align 8
  %96 = load ptr, ptr %9, align 8
  %97 = call i32 @dissect_ranap(ptr noundef %93, ptr noundef %94, ptr noundef %95, ptr noundef %96)
  store i1 true, ptr %5, align 1
  store i32 1, ptr %14, align 4
  br label %98

98:                                               ; preds = %92, %91, %82, %75, %38, %26, %18
  call void @llvm.lifetime.end.p0(i64 4, ptr %13) #5
  call void @llvm.lifetime.end.p0(i64 4, ptr %12) #5
  call void @llvm.lifetime.end.p0(i64 2, ptr %11) #5
  call void @llvm.lifetime.end.p0(i64 1, ptr %10) #5
  %99 = load i1, ptr %5, align 1
  ret i1 %99
}