; Function Attrs: null_pointer_is_valid sspstrong uwtable
define internal noundef zeroext i1 @dissect_sccp_ranap_heur(ptr noundef %0, ptr noundef %1, ptr noundef %2, ptr noundef %3) #0 {
  %5 = tail call i32 @tvb_captured_length(ptr noundef %0)
  %6 = icmp ult i32 %5, 7
  br i1 %6, label %38, label %7

7:                                                ; preds = %4
  %8 = tail call zeroext i8 @tvb_get_uint8(ptr noundef %0, i32 noundef 0)
  %9 = and i8 %8, 31
  %.not = icmp eq i8 %9, 0
  br i1 %.not, label %10, label %38

10:                                               ; preds = %7
  %11 = tail call zeroext i8 @tvb_get_uint8(ptr noundef %0, i32 noundef 2)
  %12 = icmp ne i8 %11, -64
  %13 = and i8 %11, 63
  %.not32 = icmp eq i8 %13, 0
  %or.cond = and i1 %12, %.not32
  br i1 %or.cond, label %14, label %38

14:                                               ; preds = %10
  %15 = tail call zeroext i8 @tvb_get_uint8(ptr noundef %0, i32 noundef 3)
  %16 = zext i8 %15 to i32
  %.not33 = icmp sgt i8 %15, -1
  br i1 %.not33, label %26, label %17

17:                                               ; preds = %14
  %18 = and i32 %16, 192
  %19 = icmp eq i32 %18, 128
  br i1 %19, label %20, label %26

20:                                               ; preds = %17
  %21 = shl nuw nsw i32 %16, 8
  %22 = and i32 %21, 16128
  %23 = tail call zeroext i8 @tvb_get_uint8(ptr noundef %0, i32 noundef 4)
  %24 = zext i8 %23 to i32
  %25 = or disjoint i32 %22, %24
  br label %26

26:                                               ; preds = %17, %20, %14
  %.029 = phi i32 [ %25, %20 ], [ %16, %14 ], [ 0, %17 ]
  %.0 = phi i32 [ 5, %20 ], [ 4, %14 ], [ 4, %17 ]
  %27 = tail call i32 @tvb_reported_length(ptr noundef %0)
  %28 = sub i32 %27, %.0
  %.not34 = icmp eq i32 %.029, %28
  br i1 %.not34, label %29, label %38

29:                                               ; preds = %26
  %30 = tail call zeroext i8 @tvb_get_uint8(ptr noundef %0, i32 noundef 1)
  %31 = icmp ugt i8 %30, 49
  br i1 %31, label %38, label %32

32:                                               ; preds = %29
  %33 = add nuw nsw i32 %.0, 1
  %34 = tail call zeroext i16 @tvb_get_ntohs(ptr noundef %0, i32 noundef %33)
  %35 = icmp ugt i16 %34, 511
  br i1 %35, label %38, label %36

36:                                               ; preds = %32
  %37 = tail call i32 @dissect_ranap(ptr noundef %0, ptr noundef %1, ptr noundef %2, ptr noundef %3)
  br label %38

38:                                               ; preds = %32, %29, %26, %10, %7, %4, %36
  %.030 = phi i1 [ true, %36 ], [ false, %4 ], [ false, %7 ], [ false, %10 ], [ false, %26 ], [ false, %29 ], [ false, %32 ]
  ret i1 %.030
}